target datalayout = "e-m:e-p270:32:32-p271:32:32-p272:64:64-i64:64-i128:128-f80:128-n8:16:32:64-S128"
target triple = "x86_64-pc-linux-gnu"

%union.SourceSpan = type { i64 }
%struct.VHeader_ = type { i32, i32, [0 x i8] }
%struct.Type_ = type { i32, ptr, ptr, ptr, %union.anon.86, ptr, ptr, %union.anon.88 }
%union.anon.86 = type { ptr }
%union.anon.88 = type { %struct.TypeFunction }
%struct.TypeFunction = type { ptr, ptr, ptr }
%struct.TypeArray = type { ptr, i32 }
%struct.Decl_ = type { ptr, ptr, %union.SourceSpan, i64, %union.anon, i32, %union.anon.0, i64, ptr, ptr, ptr, %union.anon.1 }
%union.anon = type { ptr }
%union.anon.0 = type { i16 }
%union.anon.1 = type { %struct.FuncDecl }
%struct.FuncDecl = type { i32, [4 x i8], %struct.Signature_, i32, i32, %union.anon.8 }
%struct.Signature_ = type <{ %struct.CalleeAttributes, i16, i8, i32, i32, [4 x i8], ptr }>
%struct.CalleeAttributes = type { i8 }
%union.anon.8 = type { %struct.anon.9 }
%struct.anon.9 = type { i16, %union.anon.10 }
%union.anon.10 = type { ptr }
%struct.anon.2 = type { ptr, ptr, %union.anon.3 }
%union.anon.3 = type { %struct.BitStructDecl }
%struct.BitStructDecl = type { ptr, ptr, i8 }
%struct.StructDecl = type { i32, ptr, i32, i16 }

@.str = private unnamed_addr constant [36 x i8] c"FATAL ERROR %s -> in %s @ in %s:%d \00", align 1
@.str.1 = private unnamed_addr constant [22 x i8] c"Should be unreachable\00", align 1
@.str.2 = private unnamed_addr constant [118 x i8] c"generated/home/dtcxzyw/WorkSpace/Projects/compilers/llvm-opt-benchmark/bench/c3c/c3c/src/compiler/llvm_codegen_type.c\00", align 1
@__func__.param_expand = private unnamed_addr constant [13 x i8] c"param_expand\00", align 1

; Function Attrs: nounwind uwtable
define internal ptr @vec_new_(i64 noundef %0, i64 noundef %1) #0 {
  %3 = alloca i64, align 8
  %4 = alloca i64, align 8
  %5 = alloca ptr, align 8
  store i64 %0, ptr %3, align 8
  store i64 %1, ptr %4, align 8
  %6 = load i64, ptr %3, align 8
  %7 = load i64, ptr %4, align 8
  %8 = mul i64 %6, %7
  %9 = add i64 %8, 8
  %10 = call ptr @calloc_arena(i64 noundef %9)
  store ptr %10, ptr %5, align 8
  %11 = load i64, ptr %4, align 8
  %12 = trunc i64 %11 to i32
  %13 = load ptr, ptr %5, align 8
  %14 = getelementptr inbounds %struct.VHeader_, ptr %13, i32 0, i32 1
  store i32 %12, ptr %14, align 4
  %15 = load ptr, ptr %5, align 8
  ret ptr %15
}

; Function Attrs: nounwind uwtable
define internal ptr @expand_(ptr noundef %0, i64 noundef %1) #0 {
  %3 = alloca ptr, align 8
  %4 = alloca i64, align 8
  %5 = alloca ptr, align 8
  %6 = alloca ptr, align 8
  %7 = alloca i64, align 8
  store ptr %0, ptr %3, align 8
  store i64 %1, ptr %4, align 8
  %8 = load ptr, ptr %3, align 8
  %9 = icmp ne ptr %8, null
  br i1 %9, label %13, label %10

10:                                               ; preds = %2
  %11 = load i64, ptr %4, align 8
  %12 = call ptr @vec_new_(i64 noundef %11, i64 noundef 8)
  store ptr %12, ptr %5, align 8
  br label %16

13:                                               ; preds = %2
  %14 = load ptr, ptr %3, align 8
  %15 = getelementptr inbounds %struct.VHeader_, ptr %14, i64 -1
  store ptr %15, ptr %5, align 8
  br label %16

16:                                               ; preds = %13, %10
  %17 = load ptr, ptr %5, align 8
  %18 = getelementptr inbounds %struct.VHeader_, ptr %17, i32 0, i32 0
  %19 = load i32, ptr %18, align 4
  %20 = load ptr, ptr %5, align 8
  %21 = getelementptr inbounds %struct.VHeader_, ptr %20, i32 0, i32 1
  %22 = load i32, ptr %21, align 4
  %23 = icmp eq i32 %19, %22
  br i1 %23, label %24, label %49

24:                                               ; preds = %16
  %25 = load i64, ptr %4, align 8
  %26 = load ptr, ptr %5, align 8
  %27 = getelementptr inbounds %struct.VHeader_, ptr %26, i32 0, i32 1
  %28 = load i32, ptr %27, align 4
  %29 = shl i32 %28, 1
  %30 = zext i32 %29 to i64
  %31 = call ptr @vec_new_(i64 noundef %25, i64 noundef %30)
  store ptr %31, ptr %6, align 8
  %32 = load i64, ptr %4, align 8
  %33 = load ptr, ptr %5, align 8
  %34 = getelementptr inbounds %struct.VHeader_, ptr %33, i32 0, i32 1
  %35 = load i32, ptr %34, align 4
  %36 = zext i32 %35 to i64
  %37 = mul i64 %32, %36
  %38 = add i64 %37, 8
  store i64 %38, ptr %7, align 8
  %39 = load ptr, ptr %6, align 8
  %40 = load ptr, ptr %5, align 8
  %41 = load i64, ptr %7, align 8
  call void @llvm.memcpy.p0.p0.i64(ptr align 4 %39, ptr align 4 %40, i64 %41, i1 false)
  %42 = load ptr, ptr %6, align 8
  store ptr %42, ptr %5, align 8
  %43 = load ptr, ptr %5, align 8
  %44 = getelementptr inbounds %struct.VHeader_, ptr %43, i32 0, i32 1
  %45 = load i32, ptr %44, align 4
  %46 = shl i32 %45, 1
  %47 = load ptr, ptr %6, align 8
  %48 = getelementptr inbounds %struct.VHeader_, ptr %47, i32 0, i32 1
  store i32 %46, ptr %48, align 4
  br label %49

49:                                               ; preds = %24, %16
  %50 = load ptr, ptr %5, align 8
  %51 = getelementptr inbounds %struct.VHeader_, ptr %50, i32 0, i32 0
  %52 = load i32, ptr %51, align 4
  %53 = add i32 %52, 1
  store i32 %53, ptr %51, align 4
  %54 = load ptr, ptr %5, align 8
  %55 = getelementptr inbounds %struct.VHeader_, ptr %54, i64 1
  ret ptr %55
}

; Function Attrs: nounwind uwtable
define internal void @param_expand(ptr noundef %0, ptr noundef %1, ptr noundef %2) #0 {
  %4 = alloca i32, align 4
  %5 = alloca ptr, align 8
  %6 = alloca ptr, align 8
  %7 = alloca i32, align 4
  %8 = alloca ptr, align 8
  %9 = alloca ptr, align 8
  %10 = alloca i32, align 4
  %11 = alloca ptr, align 8
  %12 = alloca ptr, align 8
  %13 = alloca ptr, align 8
  %14 = alloca ptr, align 8
  %15 = alloca ptr, align 8
  %16 = alloca i32, align 4
  %17 = alloca ptr, align 8
  %18 = alloca i32, align 4
  %19 = alloca i32, align 4
  %20 = alloca i64, align 8
  %21 = alloca ptr, align 8
  %22 = alloca ptr, align 8
  %23 = alloca i32, align 4
  %24 = alloca i32, align 4
  %25 = alloca ptr, align 8
  store ptr %0, ptr %13, align 8
  store ptr %1, ptr %14, align 8
  store ptr %2, ptr %15, align 8
  %26 = load ptr, ptr %15, align 8
  %27 = getelementptr inbounds %struct.Type_, ptr %26, i32 0, i32 0
  %28 = load i32, ptr %27, align 8
  switch i32 %28, label %141 [
    i32 31, label %29
    i32 33, label %32
    i32 26, label %51
    i32 24, label %88
    i32 21, label %88
    i32 30, label %88
    i32 27, label %93
  ]

29:                                               ; preds = %3
  br label %30

30:                                               ; preds = %29
  call void (ptr, ...) @error_exit(ptr noundef @.str, ptr noundef @.str.1, ptr noundef @__func__.param_expand, ptr noundef @.str.2, i32 noundef 105) #4
  unreachable

31:                                               ; No predecessors!
  br label %32

32:                                               ; preds = %31, %3
  %33 = load ptr, ptr %15, align 8
  %34 = getelementptr inbounds %struct.Type_, ptr %33, i32 0, i32 7
  %35 = getelementptr inbounds %struct.TypeArray, ptr %34, i32 0, i32 1
  %36 = load i32, ptr %35, align 8
  store i32 %36, ptr %16, align 4
  br label %37

37:                                               ; preds = %47, %32
  %38 = load i32, ptr %16, align 4
  %39 = icmp ugt i32 %38, 0
  br i1 %39, label %40, label %50

40:                                               ; preds = %37
  %41 = load ptr, ptr %13, align 8
  %42 = load ptr, ptr %14, align 8
  %43 = load ptr, ptr %15, align 8
  %44 = getelementptr inbounds %struct.Type_, ptr %43, i32 0, i32 7
  %45 = getelementptr inbounds %struct.TypeArray, ptr %44, i32 0, i32 0
  %46 = load ptr, ptr %45, align 8
  call void @param_expand(ptr noundef %41, ptr noundef %42, ptr noundef %46)
  br label %47

47:                                               ; preds = %40
  %48 = load i32, ptr %16, align 4
  %49 = add i32 %48, -1
  store i32 %49, ptr %16, align 4
  br label %37, !llvm.loop !20

50:                                               ; preds = %37
  br label %169

51:                                               ; preds = %3
  %52 = load ptr, ptr %15, align 8
  %53 = getelementptr inbounds %struct.Type_, ptr %52, i32 0, i32 7
  %54 = load ptr, ptr %53, align 8
  %55 = getelementptr inbounds %struct.Decl_, ptr %54, i32 0, i32 11
  %56 = getelementptr inbounds %struct.anon.2, ptr %55, i32 0, i32 2
  %57 = getelementptr inbounds %struct.StructDecl, ptr %56, i32 0, i32 1
  %58 = load ptr, ptr %57, align 8
  store ptr %58, ptr %17, align 8
  store i32 0, ptr %18, align 4
  %59 = load ptr, ptr %17, align 8
  store ptr %59, ptr %5, align 8
  %60 = load ptr, ptr %5, align 8
  %61 = icmp ne ptr %60, null
  br i1 %61, label %63, label %62

62:                                               ; preds = %51
  store i32 0, ptr %4, align 4
  br label %68

63:                                               ; preds = %51
  %64 = load ptr, ptr %5, align 8
  store ptr %64, ptr %6, align 8
  %65 = load ptr, ptr %6, align 8
  %66 = getelementptr inbounds %struct.VHeader_, ptr %65, i64 -1
  %67 = load i32, ptr %66, align 4
  store i32 %67, ptr %4, align 4
  br label %68

68:                                               ; preds = %63, %62
  %69 = load i32, ptr %4, align 4
  store i32 %69, ptr %19, align 4
  br label %70

70:                                               ; preds = %84, %68
  %71 = load i32, ptr %18, align 4
  %72 = load i32, ptr %19, align 4
  %73 = icmp ult i32 %71, %72
  br i1 %73, label %74, label %87

74:                                               ; preds = %70
  %75 = load ptr, ptr %13, align 8
  %76 = load ptr, ptr %14, align 8
  %77 = load ptr, ptr %17, align 8
  %78 = load i32, ptr %18, align 4
  %79 = zext i32 %78 to i64
  %80 = getelementptr inbounds ptr, ptr %77, i64 %79
  %81 = load ptr, ptr %80, align 8
  %82 = getelementptr inbounds %struct.Decl_, ptr %81, i32 0, i32 10
  %83 = load ptr, ptr %82, align 8
  call void @param_expand(ptr noundef %75, ptr noundef %76, ptr noundef %83)
  br label %84

84:                                               ; preds = %74
  %85 = load i32, ptr %18, align 4
  %86 = add i32 %85, 1
  store i32 %86, ptr %18, align 4
  br label %70, !llvm.loop !21

87:                                               ; preds = %70
  br label %169

88:                                               ; preds = %3, %3, %3
  %89 = load ptr, ptr %13, align 8
  %90 = load ptr, ptr %14, align 8
  %91 = load ptr, ptr %15, align 8
  %92 = call ptr @type_lowering(ptr noundef %91)
  call void @param_expand(ptr noundef %89, ptr noundef %90, ptr noundef %92)
  br label %169

93:                                               ; preds = %3
  store i64 0, ptr %20, align 8
  store ptr null, ptr %21, align 8
  %94 = load ptr, ptr %15, align 8
  %95 = getelementptr inbounds %struct.Type_, ptr %94, i32 0, i32 7
  %96 = load ptr, ptr %95, align 8
  %97 = getelementptr inbounds %struct.Decl_, ptr %96, i32 0, i32 11
  %98 = getelementptr inbounds %struct.anon.2, ptr %97, i32 0, i32 2
  %99 = getelementptr inbounds %struct.StructDecl, ptr %98, i32 0, i32 1
  %100 = load ptr, ptr %99, align 8
  store ptr %100, ptr %22, align 8
  store i32 0, ptr %23, align 4
  %101 = load ptr, ptr %22, align 8
  store ptr %101, ptr %8, align 8
  %102 = load ptr, ptr %8, align 8
  %103 = icmp ne ptr %102, null
  br i1 %103, label %105, label %104

104:                                              ; preds = %93
  store i32 0, ptr %7, align 4
  br label %110

105:                                              ; preds = %93
  %106 = load ptr, ptr %8, align 8
  store ptr %106, ptr %9, align 8
  %107 = load ptr, ptr %9, align 8
  %108 = getelementptr inbounds %struct.VHeader_, ptr %107, i64 -1
  %109 = load i32, ptr %108, align 4
  store i32 %109, ptr %7, align 4
  br label %110

110:                                              ; preds = %105, %104
  %111 = load i32, ptr %7, align 4
  store i32 %111, ptr %24, align 4
  br label %112

112:                                              ; preds = %130, %110
  %113 = load i32, ptr %23, align 4
  %114 = load i32, ptr %24, align 4
  %115 = icmp ult i32 %113, %114
  br i1 %115, label %116, label %133

116:                                              ; preds = %112
  %117 = load ptr, ptr %15, align 8
  %118 = call i32 @type_size(ptr noundef %117)
  %119 = zext i32 %118 to i64
  %120 = load i64, ptr %20, align 8
  %121 = icmp ugt i64 %119, %120
  br i1 %121, label %122, label %129

122:                                              ; preds = %116
  %123 = load ptr, ptr %15, align 8
  %124 = call i32 @type_size(ptr noundef %123)
  %125 = zext i32 %124 to i64
  store i64 %125, ptr %20, align 8
  %126 = load ptr, ptr %15, align 8
  %127 = getelementptr inbounds %struct.Type_, ptr %126, i32 0, i32 1
  %128 = load ptr, ptr %127, align 8
  store ptr %128, ptr %15, align 8
  br label %129

129:                                              ; preds = %122, %116
  br label %130

130:                                              ; preds = %129
  %131 = load i32, ptr %23, align 4
  %132 = add i32 %131, 1
  store i32 %132, ptr %23, align 4
  br label %112, !llvm.loop !22

133:                                              ; preds = %112
  %134 = load i64, ptr %20, align 8
  %135 = icmp ne i64 %134, 0
  br i1 %135, label %137, label %136

136:                                              ; preds = %133
  br label %169

137:                                              ; preds = %133
  %138 = load ptr, ptr %13, align 8
  %139 = load ptr, ptr %14, align 8
  %140 = load ptr, ptr %21, align 8
  call void @param_expand(ptr noundef %138, ptr noundef %139, ptr noundef %140)
  br label %169

141:                                              ; preds = %3
  br label %142

142:                                              ; preds = %141
  %143 = load ptr, ptr %14, align 8
  %144 = load ptr, ptr %143, align 8
  %145 = call ptr @expand_(ptr noundef %144, i64 noundef 8)
  store ptr %145, ptr %25, align 8
  %146 = load ptr, ptr %25, align 8
  %147 = load ptr, ptr %14, align 8
  store ptr %146, ptr %147, align 8
  %148 = load ptr, ptr %13, align 8
  %149 = load ptr, ptr %15, align 8
  %150 = call ptr @llvm_get_type(ptr noundef %148, ptr noundef %149)
  %151 = load ptr, ptr %14, align 8
  %152 = load ptr, ptr %151, align 8
  %153 = load ptr, ptr %14, align 8
  %154 = load ptr, ptr %153, align 8
  store ptr %154, ptr %11, align 8
  %155 = load ptr, ptr %11, align 8
  %156 = icmp ne ptr %155, null
  br i1 %156, label %158, label %157

157:                                              ; preds = %142
  store i32 0, ptr %10, align 4
  br label %163

158:                                              ; preds = %142
  %159 = load ptr, ptr %11, align 8
  store ptr %159, ptr %12, align 8
  %160 = load ptr, ptr %12, align 8
  %161 = getelementptr inbounds %struct.VHeader_, ptr %160, i64 -1
  %162 = load i32, ptr %161, align 4
  store i32 %162, ptr %10, align 4
  br label %163

163:                                              ; preds = %158, %157
  %164 = load i32, ptr %10, align 4
  %165 = sub i32 %164, 1
  %166 = zext i32 %165 to i64
  %167 = getelementptr inbounds ptr, ptr %152, i64 %166
  store ptr %150, ptr %167, align 8
  br label %168

168:                                              ; preds = %163
  br label %169

169:                                              ; preds = %168, %137, %136, %88, %87, %50
  ret void
}