; Function Attrs: nounwind uwtable
define internal fastcc void @param_expand(ptr noundef %0, ptr noundef %1, ptr noundef %2) unnamed_addr #0 {
  br label %tailrecurse

tailrecurse:                                      ; preds = %tailrecurse.backedge, %3
  %.tr66 = phi ptr [ %2, %3 ], [ %.tr66.be, %tailrecurse.backedge ]
  %4 = load i32, ptr %.tr66, align 8
  switch i32 %4, label %44 [
    i32 31, label %5
    i32 33, label %6
    i32 26, label %12
    i32 24, label %24
    i32 21, label %24
    i32 30, label %24
    i32 27, label %26
  ]

5:                                                ; preds = %tailrecurse
  tail call void (ptr, ...) @error_exit(ptr noundef nonnull @.str, ptr noundef nonnull @.str.1, ptr noundef nonnull @__func__.param_expand, ptr noundef nonnull @.str.2, i32 noundef 105) #5
  unreachable

6:                                                ; preds = %tailrecurse
  %7 = getelementptr inbounds i8, ptr %.tr66, i64 56
  %8 = getelementptr inbounds i8, ptr %.tr66, i64 64
  %9 = load i32, ptr %8, align 8
  %.not6379 = icmp eq i32 %9, 0
  br i1 %.not6379, label %.loopexit, label %.lr.ph82

.lr.ph82:                                         ; preds = %6, %.lr.ph82
  %.05680 = phi i32 [ %11, %.lr.ph82 ], [ %9, %6 ]
  %10 = load ptr, ptr %7, align 8
  tail call fastcc void @param_expand(ptr noundef %0, ptr noundef %1, ptr noundef %10)
  %11 = add i32 %.05680, -1
  %.not63 = icmp eq i32 %11, 0
  br i1 %.not63, label %.loopexit, label %.lr.ph82, !llvm.loop !20

12:                                               ; preds = %tailrecurse
  %13 = getelementptr inbounds i8, ptr %.tr66, i64 56
  %14 = load ptr, ptr %13, align 8
  %15 = getelementptr inbounds i8, ptr %14, i64 104
  %16 = load ptr, ptr %15, align 8
  %.not62 = icmp eq ptr %16, null
  br i1 %.not62, label %.loopexit, label %17

17:                                               ; preds = %12
  %18 = getelementptr inbounds i8, ptr %16, i64 -8
  %19 = load i32, ptr %18, align 4
  %.not84 = icmp eq i32 %19, 0
  br i1 %.not84, label %.loopexit, label %.lr.ph78.preheader

.lr.ph78.preheader:                               ; preds = %17
  %wide.trip.count = zext i32 %19 to i64
  br label %.lr.ph78

.lr.ph78:                                         ; preds = %.lr.ph78.preheader, %.lr.ph78
  %indvars.iv = phi i64 [ 0, %.lr.ph78.preheader ], [ %indvars.iv.next, %.lr.ph78 ]
  %20 = getelementptr inbounds ptr, ptr %16, i64 %indvars.iv
  %21 = load ptr, ptr %20, align 8
  %22 = getelementptr inbounds i8, ptr %21, i64 72
  %23 = load ptr, ptr %22, align 8
  tail call fastcc void @param_expand(ptr noundef %0, ptr noundef %1, ptr noundef %23)
  %indvars.iv.next = add nuw nsw i64 %indvars.iv, 1
  %exitcond92.not = icmp eq i64 %indvars.iv.next, %wide.trip.count
  br i1 %exitcond92.not, label %.loopexit, label %.lr.ph78, !llvm.loop !21

24:                                               ; preds = %tailrecurse, %tailrecurse, %tailrecurse
  %25 = tail call fastcc ptr @type_lowering(ptr noundef nonnull %.tr66)
  br label %tailrecurse.backedge

tailrecurse.backedge:                             ; preds = %24, %._crit_edge
  %.tr66.be = phi ptr [ %25, %24 ], [ null, %._crit_edge ]
  br label %tailrecurse

26:                                               ; preds = %tailrecurse
  %27 = getelementptr inbounds i8, ptr %.tr66, i64 56
  %28 = load ptr, ptr %27, align 8
  %29 = getelementptr inbounds i8, ptr %28, i64 104
  %30 = load ptr, ptr %29, align 8
  %.not = icmp eq ptr %30, null
  br i1 %.not, label %.loopexit, label %31

31:                                               ; preds = %26
  %32 = getelementptr inbounds i8, ptr %30, i64 -8
  %33 = load i32, ptr %32, align 4
  %.not83 = icmp eq i32 %33, 0
  br i1 %.not83, label %.loopexit, label %.lr.ph

.lr.ph:                                           ; preds = %31, %42
  %.05175 = phi i32 [ %43, %42 ], [ 0, %31 ]
  %.05374 = phi ptr [ %.1, %42 ], [ %.tr66, %31 ]
  %.05473 = phi i64 [ %.155, %42 ], [ 0, %31 ]
  %34 = tail call i32 @type_size(ptr noundef %.05374) #6
  %35 = zext i32 %34 to i64
  %36 = icmp ult i64 %.05473, %35
  br i1 %36, label %37, label %42

37:                                               ; preds = %.lr.ph
  %38 = tail call i32 @type_size(ptr noundef %.05374) #6
  %39 = zext i32 %38 to i64
  %40 = getelementptr inbounds i8, ptr %.05374, i64 8
  %41 = load ptr, ptr %40, align 8
  br label %42

42:                                               ; preds = %.lr.ph, %37
  %.155 = phi i64 [ %39, %37 ], [ %.05473, %.lr.ph ]
  %.1 = phi ptr [ %41, %37 ], [ %.05374, %.lr.ph ]
  %43 = add nuw i32 %.05175, 1
  %exitcond.not = icmp eq i32 %43, %33
  br i1 %exitcond.not, label %._crit_edge, label %.lr.ph, !llvm.loop !22

._crit_edge:                                      ; preds = %42
  %.not61 = icmp eq i64 %.155, 0
  br i1 %.not61, label %.loopexit, label %tailrecurse.backedge

44:                                               ; preds = %tailrecurse
  %45 = load ptr, ptr %1, align 8
  %.not.i = icmp eq ptr %45, null
  br i1 %.not.i, label %46, label %49

46:                                               ; preds = %44
  %47 = tail call ptr @calloc_arena(i64 noundef 72) #6
  %48 = getelementptr inbounds i8, ptr %47, i64 4
  store i32 8, ptr %48, align 4
  br label %51

49:                                               ; preds = %44
  %50 = getelementptr inbounds i8, ptr %45, i64 -8
  %.phi.trans.insert.i = getelementptr inbounds i8, ptr %45, i64 -4
  %.pre.i = load i32, ptr %.phi.trans.insert.i, align 4
  br label %51

51:                                               ; preds = %49, %46
  %52 = phi i32 [ %.pre.i, %49 ], [ 8, %46 ]
  %.0.i = phi ptr [ %50, %49 ], [ %47, %46 ]
  %53 = load i32, ptr %.0.i, align 4
  %54 = icmp eq i32 %53, %52
  br i1 %54, label %55, label %expand_.exit

55:                                               ; preds = %51
  %56 = getelementptr inbounds i8, ptr %.0.i, i64 4
  %57 = shl i32 %52, 1
  %58 = zext i32 %57 to i64
  %59 = shl nuw nsw i64 %58, 3
  %60 = or disjoint i64 %59, 8
  %61 = tail call ptr @calloc_arena(i64 noundef %60) #6
  %62 = getelementptr inbounds i8, ptr %61, i64 4
  store i32 %57, ptr %62, align 4
  %63 = load i32, ptr %56, align 4
  %64 = zext i32 %63 to i64
  %65 = shl nuw nsw i64 %64, 3
  %66 = add nuw nsw i64 %65, 8
  tail call void @llvm.memcpy.p0.p0.i64(ptr noundef nonnull align 4 dereferenceable(1) %61, ptr noundef nonnull align 4 dereferenceable(1) %.0.i, i64 %66, i1 false)
  %67 = load i32, ptr %62, align 4
  %68 = shl i32 %67, 1
  store i32 %68, ptr %62, align 4
  %.pre18.i = load i32, ptr %61, align 4
  br label %expand_.exit

expand_.exit:                                     ; preds = %51, %55
  %69 = phi i32 [ %.pre18.i, %55 ], [ %53, %51 ]
  %.1.i = phi ptr [ %61, %55 ], [ %.0.i, %51 ]
  %70 = add i32 %69, 1
  store i32 %70, ptr %.1.i, align 4
  %71 = getelementptr inbounds i8, ptr %.1.i, i64 8
  store ptr %71, ptr %1, align 8
  %72 = tail call ptr @llvm_get_type(ptr noundef %0, ptr noundef nonnull %.tr66)
  %73 = load ptr, ptr %1, align 8
  %.not64 = icmp eq ptr %73, null
  br i1 %.not64, label %79, label %74

74:                                               ; preds = %expand_.exit
  %75 = getelementptr inbounds i8, ptr %73, i64 -8
  %76 = load i32, ptr %75, align 4
  %77 = add i32 %76, -1
  %78 = zext i32 %77 to i64
  br label %79

79:                                               ; preds = %expand_.exit, %74
  %.052 = phi i64 [ %78, %74 ], [ 4294967295, %expand_.exit ]
  %80 = getelementptr inbounds ptr, ptr %73, i64 %.052
  store ptr %72, ptr %80, align 8
  br label %.loopexit

.loopexit:                                        ; preds = %26, %31, %._crit_edge, %.lr.ph78, %.lr.ph82, %12, %17, %6, %79
  ret void
}